target datalayout = "e-m:e-p270:32:32-p271:32:32-p272:64:64-i64:64-i128:128-f80:128-n8:16:32:64-S128"
target triple = "x86_64-pc-linux-gnu"

%"class.grpc_core::Timestamp" = type { i64 }
%"class.grpc_core::HPackTable::MementoRingBuffer" = type { i32, i32, i32, i32, %"class.grpc_core::Timestamp", %"class.std::vector" }
%"class.std::vector" = type { %"struct.std::_Vector_base" }
%"struct.std::_Vector_base" = type { %"struct.std::_Vector_base<grpc_core::HPackTable::Memento, std::allocator<grpc_core::HPackTable::Memento>>::_Vector_impl" }
%"struct.std::_Vector_base<grpc_core::HPackTable::Memento, std::allocator<grpc_core::HPackTable::Memento>>::_Vector_impl" = type { %"struct.std::_Vector_base<grpc_core::HPackTable::Memento, std::allocator<grpc_core::HPackTable::Memento>>::_Vector_impl_data" }
%"struct.std::_Vector_base<grpc_core::HPackTable::Memento, std::allocator<grpc_core::HPackTable::Memento>>::_Vector_impl_data" = type { ptr, ptr, ptr }
%"struct.grpc_core::HPackTable::Memento" = type { %"class.grpc_core::ParsedMetadata", %"class.grpc_core::UniquePtrWithBitset" }
%"class.grpc_core::ParsedMetadata" = type <{ ptr, %"union.grpc_core::metadata_detail::Buffer", i32, [4 x i8] }>
%"union.grpc_core::metadata_detail::Buffer" = type { %struct.grpc_slice }
%struct.grpc_slice = type { ptr, %"union.grpc_slice::grpc_slice_data" }
%"union.grpc_slice::grpc_slice_data" = type { %"struct.grpc_slice::grpc_slice_data::grpc_slice_refcounted", [8 x i8] }
%"struct.grpc_slice::grpc_slice_data::grpc_slice_refcounted" = type { i64, ptr }
%"class.grpc_core::UniquePtrWithBitset" = type { i64 }
%"class.grpc_core::HPackTable" = type { i32, i32, i32, %"class.grpc_core::HPackTable::MementoRingBuffer", ptr }

; Function Attrs: inlinehint mustprogress nounwind uwtable
define linkonce_odr noundef i64 @_ZSt10__exchangeImiET_RS0_OT0_(ptr noundef nonnull align 8 dereferenceable(8) %0, ptr noundef nonnull align 4 dereferenceable(4) %1) #7 comdat {
  %3 = alloca ptr, align 8
  %4 = alloca ptr, align 8
  %5 = alloca i64, align 8
  store ptr %0, ptr %3, align 8, !tbaa !125
  store ptr %1, ptr %4, align 8, !tbaa !27
  call void @llvm.lifetime.start.p0(i64 8, ptr %5) #3
  %6 = load ptr, ptr %3, align 8, !tbaa !125
  %7 = load i64, ptr %6, align 8, !tbaa !24
  store i64 %7, ptr %5, align 8, !tbaa !24
  %8 = load ptr, ptr %4, align 8, !tbaa !27
  %9 = load i32, ptr %8, align 4, !tbaa !19
  %10 = sext i32 %9 to i64
  %11 = load ptr, ptr %3, align 8, !tbaa !125
  store i64 %10, ptr %11, align 8, !tbaa !24
  %12 = load i64, ptr %5, align 8, !tbaa !24
  call void @llvm.lifetime.end.p0(i64 8, ptr %5) #3
  ret i64 %12
}

; Function Attrs: inlinehint mustprogress nounwind uwtable
define linkonce_odr noundef i64 @_ZSt8exchangeImiET_RS0_OT0_(ptr noundef nonnull align 8 dereferenceable(8) %0, ptr noundef nonnull align 4 dereferenceable(4) %1) #7 comdat personality ptr @__gxx_personality_v0 {
  %3 = alloca ptr, align 8
  %4 = alloca ptr, align 8
  store ptr %0, ptr %3, align 8, !tbaa !125
  store ptr %1, ptr %4, align 8, !tbaa !27
  %5 = load ptr, ptr %3, align 8, !tbaa !125
  %6 = load ptr, ptr %4, align 8, !tbaa !27
  %7 = invoke noundef i64 @_ZSt10__exchangeImiET_RS0_OT0_(ptr noundef nonnull align 8 dereferenceable(8) %5, ptr noundef nonnull align 4 dereferenceable(4) %6)
          to label %8 unwind label %9

8:                                                ; preds = %2
  ret i64 %7

9:                                                ; preds = %2
  %10 = landingpad { ptr, i32 }
          catch ptr null
  %11 = extractvalue { ptr, i32 } %10, 0
  call void @__clang_call_terminate(ptr %11) #25
  unreachable
}

; Function Attrs: mustprogress nounwind uwtable
define linkonce_odr noundef ptr @_ZN9grpc_core14ParsedMetadataI19grpc_metadata_batchE11EmptyVTableEv() #8 comdat align 2 {
  ret ptr @_ZZN9grpc_core14ParsedMetadataI19grpc_metadata_batchE11EmptyVTableEvE6vtable
}

; Function Attrs: mustprogress nounwind uwtable
define linkonce_odr void @_ZN9grpc_core19UniquePtrWithBitsetINS_16HpackParseResultELm1EEC2EOS2_(ptr noundef nonnull align 8 dereferenceable(8) %0, ptr noundef nonnull align 8 dereferenceable(8) %1) unnamed_addr #8 comdat align 2 {
  %3 = alloca ptr, align 8
  %4 = alloca ptr, align 8
  %5 = alloca i32, align 4
  store ptr %0, ptr %3, align 8, !tbaa !49
  store ptr %1, ptr %4, align 8, !tbaa !49
  %6 = load ptr, ptr %3, align 8
  %7 = getelementptr inbounds nuw %"class.grpc_core::UniquePtrWithBitset", ptr %6, i32 0, i32 0
  %8 = load ptr, ptr %4, align 8, !tbaa !49
  %9 = getelementptr inbounds nuw %"class.grpc_core::UniquePtrWithBitset", ptr %8, i32 0, i32 0
  call void @llvm.lifetime.start.p0(i64 4, ptr %5) #3
  store i32 0, ptr %5, align 4, !tbaa !19
  %10 = call noundef i64 @_ZSt8exchangeImiET_RS0_OT0_(ptr noundef nonnull align 8 dereferenceable(8) %9, ptr noundef nonnull align 4 dereferenceable(4) %5) #3
  call void @llvm.lifetime.end.p0(i64 4, ptr %5) #3
  store i64 %10, ptr %7, align 8, !tbaa !53
  ret void
}

; Function Attrs: mustprogress nounwind uwtable
define linkonce_odr void @_ZN9grpc_core14ParsedMetadataI19grpc_metadata_batchEC2EOS2_(ptr noundef nonnull align 8 dereferenceable(44) %0, ptr noundef nonnull align 8 dereferenceable(44) %1) unnamed_addr #8 comdat align 2 {
  %3 = alloca ptr, align 8
  %4 = alloca ptr, align 8
  store ptr %0, ptr %3, align 8, !tbaa !68
  store ptr %1, ptr %4, align 8, !tbaa !68
  %5 = load ptr, ptr %3, align 8
  %6 = getelementptr inbounds nuw %"class.grpc_core::ParsedMetadata", ptr %5, i32 0, i32 0
  %7 = load ptr, ptr %4, align 8, !tbaa !68
  %8 = getelementptr inbounds nuw %"class.grpc_core::ParsedMetadata", ptr %7, i32 0, i32 0
  %9 = load ptr, ptr %8, align 8, !tbaa !97
  store ptr %9, ptr %6, align 8, !tbaa !97
  %10 = getelementptr inbounds nuw %"class.grpc_core::ParsedMetadata", ptr %5, i32 0, i32 1
  %11 = load ptr, ptr %4, align 8, !tbaa !68
  %12 = getelementptr inbounds nuw %"class.grpc_core::ParsedMetadata", ptr %11, i32 0, i32 1
  call void @llvm.memcpy.p0.p0.i64(ptr align 8 %10, ptr align 8 %12, i64 32, i1 false), !tbaa.struct !98
  %13 = getelementptr inbounds nuw %"class.grpc_core::ParsedMetadata", ptr %5, i32 0, i32 2
  %14 = load ptr, ptr %4, align 8, !tbaa !68
  %15 = getelementptr inbounds nuw %"class.grpc_core::ParsedMetadata", ptr %14, i32 0, i32 2
  %16 = load i32, ptr %15, align 8, !tbaa !70
  store i32 %16, ptr %13, align 8, !tbaa !70
  %17 = call noundef ptr @_ZN9grpc_core14ParsedMetadataI19grpc_metadata_batchE11EmptyVTableEv()
  %18 = load ptr, ptr %4, align 8, !tbaa !68
  %19 = getelementptr inbounds nuw %"class.grpc_core::ParsedMetadata", ptr %18, i32 0, i32 0
  store ptr %17, ptr %19, align 8, !tbaa !97
  ret void
}

; Function Attrs: mustprogress nounwind uwtable
define linkonce_odr noundef i32 @_ZNK9grpc_core10HPackTable17MementoRingBuffer11num_entriesEv(ptr noundef nonnull align 8 dereferenceable(48) %0) #8 comdat align 2 {
  %2 = alloca ptr, align 8
  store ptr %0, ptr %2, align 8, !tbaa !3
  %3 = load ptr, ptr %2, align 8
  %4 = getelementptr inbounds nuw %"class.grpc_core::HPackTable::MementoRingBuffer", ptr %3, i32 0, i32 1
  %5 = load i32, ptr %4, align 4, !tbaa !10
  ret i32 %5
}

; Function Attrs: inlinehint mustprogress nounwind uwtable
define linkonce_odr void @_ZN9grpc_core10HPackTable7MementoC2EOS1_(ptr noundef nonnull align 8 dereferenceable(56) %0, ptr noundef nonnull align 8 dereferenceable(56) %1) unnamed_addr #7 comdat align 2 {
  %3 = alloca ptr, align 8
  %4 = alloca ptr, align 8
  store ptr %0, ptr %3, align 8, !tbaa !8
  store ptr %1, ptr %4, align 8, !tbaa !8
  %5 = load ptr, ptr %3, align 8
  %6 = getelementptr inbounds nuw %"struct.grpc_core::HPackTable::Memento", ptr %5, i32 0, i32 0
  %7 = load ptr, ptr %4, align 8, !tbaa !8
  %8 = getelementptr inbounds nuw %"struct.grpc_core::HPackTable::Memento", ptr %7, i32 0, i32 0
  call void @_ZN9grpc_core14ParsedMetadataI19grpc_metadata_batchEC2EOS2_(ptr noundef nonnull align 8 dereferenceable(44) %6, ptr noundef nonnull align 8 dereferenceable(44) %8) #3
  %9 = getelementptr inbounds nuw %"struct.grpc_core::HPackTable::Memento", ptr %5, i32 0, i32 1
  %10 = load ptr, ptr %4, align 8, !tbaa !8
  %11 = getelementptr inbounds nuw %"struct.grpc_core::HPackTable::Memento", ptr %10, i32 0, i32 1
  call void @_ZN9grpc_core19UniquePtrWithBitsetINS_16HpackParseResultELm1EEC2EOS2_(ptr noundef nonnull align 8 dereferenceable(8) %9, ptr noundef nonnull align 8 dereferenceable(8) %11) #3
  ret void
}

; Function Attrs: mustprogress uwtable
define void @_ZN9grpc_core10HPackTable29AddLargerThanCurrentTableSizeEv(ptr noundef nonnull align 8 dereferenceable(72) %0) #4 align 2 {
  %2 = alloca ptr, align 8
  store ptr %0, ptr %2, align 8, !tbaa !63
  %3 = load ptr, ptr %2, align 8
  br label %4

4:                                                ; preds = %8, %1
  %5 = getelementptr inbounds nuw %"class.grpc_core::HPackTable", ptr %3, i32 0, i32 3
  %6 = call noundef i32 @_ZNK9grpc_core10HPackTable17MementoRingBuffer11num_entriesEv(ptr noundef nonnull align 8 dereferenceable(48) %5)
  %7 = icmp ne i32 %6, 0
  br i1 %7, label %8, label %9

8:                                                ; preds = %4
  call void @_ZN9grpc_core10HPackTable8EvictOneEv(ptr noundef nonnull align 8 dereferenceable(72) %3)
  br label %4, !llvm.loop !85

9:                                                ; preds = %4
  ret void
}

; Function Attrs: mustprogress nounwind uwtable
define linkonce_odr noundef i32 @_ZNK9grpc_core14ParsedMetadataI19grpc_metadata_batchE14transport_sizeEv(ptr noundef nonnull align 8 dereferenceable(44) %0) #8 comdat align 2 {
  %2 = alloca ptr, align 8
  store ptr %0, ptr %2, align 8, !tbaa !68
  %3 = load ptr, ptr %2, align 8
  %4 = getelementptr inbounds nuw %"class.grpc_core::ParsedMetadata", ptr %3, i32 0, i32 2
  %5 = load i32, ptr %4, align 8, !tbaa !70
  ret i32 %5
}

; Function Attrs: mustprogress uwtable
define noundef zeroext i1 @_ZN9grpc_core10HPackTable3AddENS0_7MementoE(ptr noundef nonnull align 8 dereferenceable(72) %0, ptr noundef %1) #4 align 2 personality ptr @__gxx_personality_v0 {
  %3 = alloca i1, align 1
  %4 = alloca ptr, align 8
  %5 = alloca ptr, align 8
  %6 = alloca %"struct.grpc_core::HPackTable::Memento", align 8
  %7 = alloca ptr, align 8
  %8 = alloca i32, align 4
  store ptr %0, ptr %4, align 8, !tbaa !63
  store ptr %1, ptr %5, align 8, !tbaa !8
  %9 = load ptr, ptr %4, align 8
  %10 = getelementptr inbounds nuw %"class.grpc_core::HPackTable", ptr %9, i32 0, i32 2
  %11 = load i32, ptr %10, align 8, !tbaa !82
  %12 = getelementptr inbounds nuw %"class.grpc_core::HPackTable", ptr %9, i32 0, i32 1
  %13 = load i32, ptr %12, align 4, !tbaa !78
  %14 = icmp ugt i32 %11, %13
  br i1 %14, label %15, label %16

15:                                               ; preds = %2
  store i1 false, ptr %3, align 1
  br label %49

16:                                               ; preds = %2
  %17 = getelementptr inbounds nuw %"struct.grpc_core::HPackTable::Memento", ptr %1, i32 0, i32 0
  %18 = call noundef i32 @_ZNK9grpc_core14ParsedMetadataI19grpc_metadata_batchE14transport_sizeEv(ptr noundef nonnull align 8 dereferenceable(44) %17)
  %19 = getelementptr inbounds nuw %"class.grpc_core::HPackTable", ptr %9, i32 0, i32 2
  %20 = load i32, ptr %19, align 8, !tbaa !82
  %21 = icmp ugt i32 %18, %20
  br i1 %21, label %22, label %23

22:                                               ; preds = %16
  call void @_ZN9grpc_core10HPackTable29AddLargerThanCurrentTableSizeEv(ptr noundef nonnull align 8 dereferenceable(72) %9)
  store i1 true, ptr %3, align 1
  br label %49

23:                                               ; preds = %16
  br label %24

24:                                               ; preds = %36, %23
  %25 = getelementptr inbounds nuw %"struct.grpc_core::HPackTable::Memento", ptr %1, i32 0, i32 0
  %26 = call noundef i32 @_ZNK9grpc_core14ParsedMetadataI19grpc_metadata_batchE14transport_sizeEv(ptr noundef nonnull align 8 dereferenceable(44) %25)
  %27 = zext i32 %26 to i64
  %28 = getelementptr inbounds nuw %"class.grpc_core::HPackTable", ptr %9, i32 0, i32 2
  %29 = load i32, ptr %28, align 8, !tbaa !82
  %30 = zext i32 %29 to i64
  %31 = getelementptr inbounds nuw %"class.grpc_core::HPackTable", ptr %9, i32 0, i32 0
  %32 = load i32, ptr %31, align 8, !tbaa !65
  %33 = zext i32 %32 to i64
  %34 = sub i64 %30, %33
  %35 = icmp ugt i64 %27, %34
  br i1 %35, label %36, label %37

36:                                               ; preds = %24
  call void @_ZN9grpc_core10HPackTable8EvictOneEv(ptr noundef nonnull align 8 dereferenceable(72) %9)
  br label %24, !llvm.loop !84

37:                                               ; preds = %24
  %38 = getelementptr inbounds nuw %"struct.grpc_core::HPackTable::Memento", ptr %1, i32 0, i32 0
  %39 = call noundef i32 @_ZNK9grpc_core14ParsedMetadataI19grpc_metadata_batchE14transport_sizeEv(ptr noundef nonnull align 8 dereferenceable(44) %38)
  %40 = getelementptr inbounds nuw %"class.grpc_core::HPackTable", ptr %9, i32 0, i32 0
  %41 = load i32, ptr %40, align 8, !tbaa !65
  %42 = add i32 %41, %39
  store i32 %42, ptr %40, align 8, !tbaa !65
  %43 = getelementptr inbounds nuw %"class.grpc_core::HPackTable", ptr %9, i32 0, i32 3
  call void @_ZN9grpc_core10HPackTable7MementoC2EOS1_(ptr noundef nonnull align 8 dereferenceable(56) %6, ptr noundef nonnull align 8 dereferenceable(56) %1) #3
  invoke void @_ZN9grpc_core10HPackTable17MementoRingBuffer3PutENS0_7MementoE(ptr noundef nonnull align 8 dereferenceable(48) %43, ptr noundef %6)
          to label %44 unwind label %45

44:                                               ; preds = %37
  call void @_ZN9grpc_core10HPackTable7MementoD2Ev(ptr noundef nonnull align 8 dereferenceable(56) %6) #3
  store i1 true, ptr %3, align 1
  br label %49

45:                                               ; preds = %37
  %46 = landingpad { ptr, i32 }
          cleanup
  %47 = extractvalue { ptr, i32 } %46, 0
  store ptr %47, ptr %7, align 8
  %48 = extractvalue { ptr, i32 } %46, 1
  store i32 %48, ptr %8, align 4
  call void @_ZN9grpc_core10HPackTable7MementoD2Ev(ptr noundef nonnull align 8 dereferenceable(56) %6) #3
  br label %51

49:                                               ; preds = %44, %22, %15
  %50 = load i1, ptr %3, align 1
  ret i1 %50

51:                                               ; preds = %45
  %52 = load ptr, ptr %7, align 8
  %53 = load i32, ptr %8, align 4
  %54 = insertvalue { ptr, i32 } poison, ptr %52, 0
  %55 = insertvalue { ptr, i32 } %54, i32 %53, 1
  resume { ptr, i32 } %55
}