; Function Attrs: mustprogress uwtable
define noundef zeroext i1 @_ZN9grpc_core10HPackTable3AddENS0_7MementoE(ptr noundef nonnull align 8 dereferenceable(72) %0, ptr noundef captures(none) %1) local_unnamed_addr #8 align 2 personality ptr @__gxx_personality_v0 {
  %3 = alloca %"struct.grpc_core::HPackTable::Memento", align 8
  %4 = getelementptr inbounds nuw i8, ptr %0, i64 8
  %5 = load i32, ptr %4, align 8, !tbaa !65
  %6 = getelementptr inbounds nuw i8, ptr %0, i64 4
  %7 = load i32, ptr %6, align 4, !tbaa !62
  %8 = icmp ule i32 %5, %7
  br i1 %8, label %9, label %_ZN9grpc_core10HPackTable29AddLargerThanCurrentTableSizeEv.exit

9:                                                ; preds = %2
  %10 = getelementptr inbounds nuw i8, ptr %1, i64 40
  %11 = load i32, ptr %10, align 8, !tbaa !31
  %12 = icmp ugt i32 %11, %5
  br i1 %12, label %19, label %.preheader

.preheader:                                       ; preds = %9
  %13 = zext i32 %11 to i64
  %14 = zext i32 %5 to i64
  %15 = load i32, ptr %0, align 8, !tbaa !59
  %16 = zext i32 %15 to i64
  %17 = sub nsw i64 %14, %16
  %18 = icmp ult i64 %17, %13
  br i1 %18, label %.lr.ph, label %._crit_edge

19:                                               ; preds = %9
  %20 = getelementptr inbounds nuw i8, ptr %0, i64 20
  %21 = load i32, ptr %20, align 4, !tbaa !3
  %.not1.i = icmp eq i32 %21, 0
  br i1 %.not1.i, label %_ZN9grpc_core10HPackTable29AddLargerThanCurrentTableSizeEv.exit, label %.lr.ph.i

.lr.ph.i:                                         ; preds = %19, %.lr.ph.i
  tail call void @_ZN9grpc_core10HPackTable8EvictOneEv(ptr noundef nonnull align 8 dereferenceable(72) %0)
  %22 = load i32, ptr %20, align 4, !tbaa !3
  %.not.i = icmp eq i32 %22, 0
  br i1 %.not.i, label %_ZN9grpc_core10HPackTable29AddLargerThanCurrentTableSizeEv.exit, label %.lr.ph.i, !llvm.loop !67

.lr.ph:                                           ; preds = %.preheader, %.lr.ph
  tail call void @_ZN9grpc_core10HPackTable8EvictOneEv(ptr noundef nonnull align 8 dereferenceable(72) %0)
  %23 = load i32, ptr %10, align 8, !tbaa !31
  %24 = zext i32 %23 to i64
  %25 = load i32, ptr %4, align 8, !tbaa !65
  %26 = zext i32 %25 to i64
  %27 = load i32, ptr %0, align 8, !tbaa !59
  %28 = zext i32 %27 to i64
  %29 = sub nsw i64 %26, %28
  %30 = icmp ult i64 %29, %24
  br i1 %30, label %.lr.ph, label %._crit_edge, !llvm.loop !68

._crit_edge:                                      ; preds = %.lr.ph, %.preheader
  %.lcssa3 = phi i32 [ %11, %.preheader ], [ %23, %.lr.ph ]
  %.lcssa = phi i32 [ %15, %.preheader ], [ %27, %.lr.ph ]
  %31 = add i32 %.lcssa, %.lcssa3
  store i32 %31, ptr %0, align 8, !tbaa !59
  %32 = getelementptr inbounds nuw i8, ptr %0, i64 16
  %33 = load ptr, ptr %1, align 8, !tbaa !26
  store ptr %33, ptr %3, align 8, !tbaa !26
  %34 = getelementptr inbounds nuw i8, ptr %3, i64 8
  %35 = getelementptr inbounds nuw i8, ptr %1, i64 8
  call void @llvm.memcpy.p0.p0.i64(ptr noundef nonnull align 8 dereferenceable(32) %34, ptr noundef nonnull align 8 dereferenceable(32) %35, i64 32, i1 false), !tbaa.struct !29
  %36 = getelementptr inbounds nuw i8, ptr %3, i64 40
  store i32 %.lcssa3, ptr %36, align 8, !tbaa !31
  store ptr @_ZZN9grpc_core14ParsedMetadataI19grpc_metadata_batchE11EmptyVTableEvE6vtable, ptr %1, align 8, !tbaa !26
  %37 = getelementptr inbounds nuw i8, ptr %3, i64 48
  %38 = getelementptr inbounds nuw i8, ptr %1, i64 48
  %39 = load i64, ptr %38, align 8, !tbaa !32
  store i64 0, ptr %38, align 8, !tbaa !32
  store i64 %39, ptr %37, align 8, !tbaa !33
  invoke void @_ZN9grpc_core10HPackTable17MementoRingBuffer3PutENS0_7MementoE(ptr noundef nonnull align 8 dereferenceable(48) %32, ptr noundef nonnull %3)
          to label %40 unwind label %61

40:                                               ; preds = %._crit_edge
  %41 = load i64, ptr %37, align 8, !tbaa !33
  %42 = and i64 %41, -2
  %43 = inttoptr i64 %42 to ptr
  %44 = icmp eq i64 %42, 0
  br i1 %44, label %_ZN9grpc_core19UniquePtrWithBitsetINS_16HpackParseResultELm1EED2Ev.exit.i, label %45

45:                                               ; preds = %40
  %46 = load ptr, ptr %43, align 8, !tbaa !42
  %.not.i.i.i.i = icmp eq ptr %46, null
  br i1 %.not.i.i.i.i, label %_ZN9grpc_core16HpackParseResultD2Ev.exit.i.i, label %47

47:                                               ; preds = %45
  %48 = getelementptr inbounds nuw i8, ptr %46, i64 8
  %49 = atomicrmw sub ptr %48, i64 1 acq_rel, align 8
  %50 = icmp eq i64 %49, 1
  br i1 %50, label %51, label %_ZN9grpc_core16HpackParseResultD2Ev.exit.i.i, !prof !41

51:                                               ; preds = %47
  %52 = load ptr, ptr %46, align 8, !tbaa !39
  %53 = getelementptr inbounds nuw i8, ptr %52, i64 8
  %54 = load ptr, ptr %53, align 8
  call void %54(ptr noundef nonnull align 8 dereferenceable(88) %46) #31
  br label %_ZN9grpc_core16HpackParseResultD2Ev.exit.i.i

_ZN9grpc_core16HpackParseResultD2Ev.exit.i.i:     ; preds = %51, %47, %45
  call void @_ZdlPvm(ptr noundef nonnull %43, i64 noundef 8) #34
  br label %_ZN9grpc_core19UniquePtrWithBitsetINS_16HpackParseResultELm1EED2Ev.exit.i

_ZN9grpc_core19UniquePtrWithBitsetINS_16HpackParseResultELm1EED2Ev.exit.i: ; preds = %_ZN9grpc_core16HpackParseResultD2Ev.exit.i.i, %40
  %55 = load ptr, ptr %3, align 8, !tbaa !26
  %56 = getelementptr inbounds nuw i8, ptr %55, i64 8
  %57 = load ptr, ptr %56, align 8, !tbaa !45
  invoke void %57(ptr noundef nonnull align 8 dereferenceable(32) %34)
          to label %_ZN9grpc_core10HPackTable29AddLargerThanCurrentTableSizeEv.exit unwind label %58

58:                                               ; preds = %_ZN9grpc_core19UniquePtrWithBitsetINS_16HpackParseResultELm1EED2Ev.exit.i
  %59 = landingpad { ptr, i32 }
          catch ptr null
  %60 = extractvalue { ptr, i32 } %59, 0
  call void @__clang_call_terminate(ptr %60) #33
  unreachable

61:                                               ; preds = %._crit_edge
  %62 = landingpad { ptr, i32 }
          cleanup
  call void @_ZN9grpc_core10HPackTable7MementoD2Ev(ptr noundef nonnull align 8 dereferenceable(56) %3) #31
  resume { ptr, i32 } %62

_ZN9grpc_core10HPackTable29AddLargerThanCurrentTableSizeEv.exit: ; preds = %.lr.ph.i, %_ZN9grpc_core19UniquePtrWithBitsetINS_16HpackParseResultELm1EED2Ev.exit.i, %19, %2
  ret i1 %8
}